target datalayout = "e-m:e-p270:32:32-p271:32:32-p272:64:64-i64:64-i128:128-f80:128-n8:16:32:64-S128"
target triple = "x86_64-pc-linux-gnu"

%struct._output_fields = type { i8, i8, i8, i8, i8, ptr, ptr, ptr, ptr, ptr, i8, i8, i8 }
%struct._GPtrArray = type { ptr, i32 }

@.str.54 = private unnamed_addr constant [4 x i8] c"\EF\BB\BF\00", align 1

; Function Attrs: null_pointer_is_valid sspstrong uwtable
define void @write_fields_preamble(ptr noundef %0, ptr noundef %1) #0 {
  %3 = alloca ptr, align 8
  %4 = alloca ptr, align 8
  %5 = alloca i64, align 8
  %6 = alloca i32, align 4
  %7 = alloca ptr, align 8
  store ptr %0, ptr %3, align 8
  store ptr %1, ptr %4, align 8
  call void @llvm.lifetime.start.p0(i64 8, ptr %5) #15
  br label %8

8:                                                ; preds = %2
  br label %9

9:                                                ; preds = %8
  br label %10

10:                                               ; preds = %9
  br label %11

11:                                               ; preds = %10
  br label %12

12:                                               ; preds = %11
  br label %13

13:                                               ; preds = %12
  br label %14

14:                                               ; preds = %13
  br label %15

15:                                               ; preds = %14
  br label %16

16:                                               ; preds = %15
  %17 = load ptr, ptr %3, align 8
  %18 = getelementptr inbounds nuw %struct._output_fields, ptr %17, i32 0, i32 0
  %19 = load i8, ptr %18, align 8, !range !6, !noundef !7
  %20 = trunc i8 %19 to i1
  br i1 %20, label %21, label %24

21:                                               ; preds = %16
  %22 = load ptr, ptr %4, align 8
  %23 = call i32 @fputs(ptr noundef @.str.54, ptr noundef %22)
  br label %24

24:                                               ; preds = %21, %16
  %25 = load ptr, ptr %3, align 8
  %26 = getelementptr inbounds nuw %struct._output_fields, ptr %25, i32 0, i32 1
  %27 = load i8, ptr %26, align 1, !range !6, !noundef !7
  %28 = trunc i8 %27 to i1
  br i1 %28, label %30, label %29

29:                                               ; preds = %24
  store i32 1, ptr %6, align 4
  br label %68

30:                                               ; preds = %24
  store i64 0, ptr %5, align 8
  br label %31

31:                                               ; preds = %62, %30
  %32 = load i64, ptr %5, align 8
  %33 = load ptr, ptr %3, align 8
  %34 = getelementptr inbounds nuw %struct._output_fields, ptr %33, i32 0, i32 5
  %35 = load ptr, ptr %34, align 8
  %36 = getelementptr inbounds nuw %struct._GPtrArray, ptr %35, i32 0, i32 1
  %37 = load i32, ptr %36, align 8
  %38 = zext i32 %37 to i64
  %39 = icmp ult i64 %32, %38
  br i1 %39, label %40, label %65

40:                                               ; preds = %31
  call void @llvm.lifetime.start.p0(i64 8, ptr %7) #15
  %41 = load ptr, ptr %3, align 8
  %42 = getelementptr inbounds nuw %struct._output_fields, ptr %41, i32 0, i32 5
  %43 = load ptr, ptr %42, align 8
  %44 = getelementptr inbounds nuw %struct._GPtrArray, ptr %43, i32 0, i32 0
  %45 = load ptr, ptr %44, align 8
  %46 = load i64, ptr %5, align 8
  %47 = getelementptr ptr, ptr %45, i64 %46
  %48 = load ptr, ptr %47, align 8
  store ptr %48, ptr %7, align 8
  %49 = load i64, ptr %5, align 8
  %50 = icmp ne i64 %49, 0
  br i1 %50, label %51, label %58

51:                                               ; preds = %40
  %52 = load ptr, ptr %3, align 8
  %53 = getelementptr inbounds nuw %struct._output_fields, ptr %52, i32 0, i32 2
  %54 = load i8, ptr %53, align 2
  %55 = sext i8 %54 to i32
  %56 = load ptr, ptr %4, align 8
  %57 = call i32 @fputc(i32 noundef %55, ptr noundef %56)
  br label %58

58:                                               ; preds = %51, %40
  %59 = load ptr, ptr %7, align 8
  %60 = load ptr, ptr %4, align 8
  %61 = call i32 @fputs(ptr noundef %59, ptr noundef %60)
  call void @llvm.lifetime.end.p0(i64 8, ptr %7) #15
  br label %62

62:                                               ; preds = %58
  %63 = load i64, ptr %5, align 8
  %64 = add i64 %63, 1
  store i64 %64, ptr %5, align 8
  br label %31, !llvm.loop !37

65:                                               ; preds = %31
  %66 = load ptr, ptr %4, align 8
  %67 = call i32 @fputc(i32 noundef 10, ptr noundef %66)
  store i32 0, ptr %6, align 4
  br label %68

68:                                               ; preds = %65, %29
  call void @llvm.lifetime.end.p0(i64 8, ptr %5) #15
  %69 = load i32, ptr %6, align 4
  switch i32 %69, label %71 [
    i32 0, label %70
    i32 1, label %70
  ]

70:                                               ; preds = %68, %68
  ret void

71:                                               ; preds = %68
  unreachable
}