; Function Attrs: nofree nounwind null_pointer_is_valid sspstrong uwtable
define void @write_fields_preamble(ptr noundef readonly captures(none) %0, ptr noundef captures(none) %1) local_unnamed_addr #6 {
  %3 = load i8, ptr %0, align 8, !range !6, !noundef !7
  %4 = trunc nuw i8 %3 to i1
  br i1 %4, label %5, label %7

5:                                                ; preds = %2
  %6 = tail call i64 @fwrite(ptr nonnull @.str.54, i64 3, i64 1, ptr %1)
  br label %7

7:                                                ; preds = %5, %2
  %8 = getelementptr inbounds nuw i8, ptr %0, i64 1
  %9 = load i8, ptr %8, align 1, !range !6, !noundef !7
  %10 = trunc nuw i8 %9 to i1
  br i1 %10, label %.preheader, label %34

.preheader:                                       ; preds = %7
  %11 = getelementptr inbounds nuw i8, ptr %0, i64 8
  %12 = load ptr, ptr %11, align 8
  %13 = getelementptr inbounds nuw i8, ptr %12, i64 8
  %14 = load i32, ptr %13, align 8
  %.not14 = icmp eq i32 %14, 0
  br i1 %.not14, label %._crit_edge, label %.lr.ph

.lr.ph:                                           ; preds = %.preheader
  %15 = getelementptr inbounds nuw i8, ptr %0, i64 2
  br label %16

16:                                               ; preds = %.lr.ph, %25
  %17 = phi ptr [ %12, %.lr.ph ], [ %28, %25 ]
  %.013 = phi i64 [ 0, %.lr.ph ], [ %27, %25 ]
  %18 = load ptr, ptr %17, align 8
  %19 = getelementptr ptr, ptr %18, i64 %.013
  %20 = load ptr, ptr %19, align 8
  %.not = icmp eq i64 %.013, 0
  br i1 %.not, label %25, label %21

21:                                               ; preds = %16
  %22 = load i8, ptr %15, align 2
  %23 = sext i8 %22 to i32
  %24 = tail call i32 @fputc(i32 noundef %23, ptr noundef %1)
  br label %25

25:                                               ; preds = %21, %16
  %26 = tail call i32 @fputs(ptr noundef %20, ptr noundef %1)
  %27 = add nuw nsw i64 %.013, 1
  %28 = load ptr, ptr %11, align 8
  %29 = getelementptr inbounds nuw i8, ptr %28, i64 8
  %30 = load i32, ptr %29, align 8
  %31 = zext i32 %30 to i64
  %32 = icmp samesign ult i64 %27, %31
  br i1 %32, label %16, label %._crit_edge, !llvm.loop !42

._crit_edge:                                      ; preds = %25, %.preheader
  %33 = tail call i32 @fputc(i32 noundef 10, ptr noundef %1)
  br label %34

34:                                               ; preds = %7, %._crit_edge
  ret void
}